; Function Attrs: mustprogress uwtable
define void @_ZN5boost9unit_test9framework19deregister_observerERNS0_13test_observerE(ptr noundef nonnull align 8 dereferenceable(8) %0) local_unnamed_addr #3 personality ptr @__gxx_personality_v0 {
  %2 = alloca ptr, align 8
  %3 = load atomic i8, ptr @_ZGVZN5boost9unit_test9framework4impl12_GLOBAL__N_111s_frk_stateEvE8the_inst acquire, align 8
  %4 = icmp eq i8 %3, 0
  br i1 %4, label %5, label %_ZN5boost9unit_test9framework4impl12_GLOBAL__N_111s_frk_stateEv.exit, !prof !3

5:                                                ; preds = %1
  %6 = tail call i32 @__cxa_guard_acquire(ptr nonnull @_ZGVZN5boost9unit_test9framework4impl12_GLOBAL__N_111s_frk_stateEvE8the_inst) #26
  %.not.i = icmp eq i32 %6, 0
  br i1 %.not.i, label %_ZN5boost9unit_test9framework4impl12_GLOBAL__N_111s_frk_stateEv.exit, label %7

7:                                                ; preds = %5
  invoke void @_ZN5boost9unit_test9framework5stateC2Ev(ptr noundef nonnull align 8 dereferenceable(360) @_ZZN5boost9unit_test9framework4impl12_GLOBAL__N_111s_frk_stateEvE8the_inst)
          to label %8 unwind label %10

8:                                                ; preds = %7
  %9 = tail call i32 @__cxa_atexit(ptr nonnull @_ZN5boost9unit_test9framework5stateD2Ev, ptr nonnull @_ZZN5boost9unit_test9framework4impl12_GLOBAL__N_111s_frk_stateEvE8the_inst, ptr nonnull @__dso_handle) #26
  tail call void @__cxa_guard_release(ptr nonnull @_ZGVZN5boost9unit_test9framework4impl12_GLOBAL__N_111s_frk_stateEvE8the_inst) #26
  br label %_ZN5boost9unit_test9framework4impl12_GLOBAL__N_111s_frk_stateEv.exit

10:                                               ; preds = %7
  %11 = landingpad { ptr, i32 }
          cleanup
  tail call void @__cxa_guard_abort(ptr nonnull @_ZGVZN5boost9unit_test9framework4impl12_GLOBAL__N_111s_frk_stateEvE8the_inst) #26
  resume { ptr, i32 } %11

_ZN5boost9unit_test9framework4impl12_GLOBAL__N_111s_frk_stateEv.exit: ; preds = %1, %5, %8
  call void @llvm.lifetime.start.p0(i64 8, ptr nonnull %2) #26
  store ptr %0, ptr %2, align 8, !tbaa !16
  %12 = call noundef i64 @_ZNSt8_Rb_treeIPN5boost9unit_test13test_observerES3_St9_IdentityIS3_ENS1_9framework5state14priority_orderESaIS3_EE5eraseERKS3_(ptr noundef nonnull align 8 dereferenceable(48) getelementptr inbounds nuw (i8, ptr @_ZZN5boost9unit_test9framework4impl12_GLOBAL__N_111s_frk_stateEvE8the_inst, i64 112), ptr noundef nonnull align 8 dereferenceable(8) %2)
  call void @llvm.lifetime.end.p0(i64 8, ptr nonnull %2) #26
  ret void
}